target datalayout = "e-m:e-p270:32:32-p271:32:32-p272:64:64-i64:64-i128:128-f80:128-n8:16:32:64-S128"
target triple = "x86_64-pc-linux-gnu"

%"class.sat::literal" = type { i32 }
%"class.sat::elim_vars" = type { ptr, ptr, %"class.dd::bdd_manager", %class.random_gen, %class.svector.2, %class.svector.2, i32, %class.svector.2, %class.svector.2, i32, i32, i32, i32 }
%"class.dd::bdd_manager" = type { i32, %class.svector, %class.ptr_hashtable, %class.hashtable, %class.svector.2, %class.svector.2, ptr, %class.svector.2, %class.svector.2, %class.svector.2, %class.svector.2, %class.small_object_allocator, %class.svector.2, i32, %class.svector.4, %class.svector.2, i8, i8, i32, %class.svector.2, %class.svector.2, %class.svector.2, %class.vector.6, %class.svector.2, i32, i32 }
%class.svector = type { %class.vector }
%class.vector = type { ptr }
%class.ptr_hashtable = type { %class.core_hashtable.base, [4 x i8] }
%class.core_hashtable.base = type <{ ptr, i32, i32, i32 }>
%class.hashtable = type { %class.core_hashtable.base.1, [4 x i8] }
%class.core_hashtable.base.1 = type <{ ptr, i32, i32, i32 }>
%class.small_object_allocator = type { [32 x ptr], [32 x ptr], i64 }
%class.svector.4 = type { %class.vector.5 }
%class.vector.5 = type { ptr }
%class.vector.6 = type { ptr }
%class.random_gen = type { i32 }
%class.svector.2 = type { %class.vector.3 }
%class.vector.3 = type { ptr }
%"class.sat::watched" = type <{ i64, i32, [4 x i8] }>
%class.vector.60 = type { ptr }

; Function Attrs: mustprogress nounwind uwtable
define linkonce_odr hidden void @_ZN3sat7literalC2Ev(ptr noundef nonnull align 4 dereferenceable(4) %0) unnamed_addr #5 comdat align 2 {
  %2 = alloca ptr, align 8
  store ptr %0, ptr %2, align 8, !tbaa !84
  %3 = load ptr, ptr %2, align 8
  %4 = getelementptr inbounds nuw %"class.sat::literal", ptr %3, i32 0, i32 0
  store i32 -2, ptr %4, align 4, !tbaa !88
  ret void
}

; Function Attrs: mustprogress nounwind uwtable
define linkonce_odr hidden noundef i32 @_ZNK3sat7watched8get_kindEv(ptr noundef nonnull align 8 dereferenceable(12) %0) #5 comdat align 2 {
  %2 = alloca ptr, align 8
  store ptr %0, ptr %2, align 8, !tbaa !100
  %3 = load ptr, ptr %2, align 8
  %4 = getelementptr inbounds nuw %"class.sat::watched", ptr %3, i32 0, i32 1
  %5 = load i32, ptr %4, align 8, !tbaa !315
  %6 = and i32 %5, 3
  ret i32 %6
}

; Function Attrs: mustprogress nounwind uwtable
define linkonce_odr hidden noundef i32 @_ZNK6vectorIjLb0EjE4sizeEv(ptr noundef nonnull align 8 dereferenceable(8) %0) #5 comdat align 2 {
  %2 = alloca i32, align 4
  %3 = alloca ptr, align 8
  store ptr %0, ptr %3, align 8, !tbaa !237
  %4 = load ptr, ptr %3, align 8
  %5 = getelementptr inbounds nuw %class.vector.3, ptr %4, i32 0, i32 0
  %6 = load ptr, ptr %5, align 8, !tbaa !239
  %7 = icmp eq ptr %6, null
  br i1 %7, label %8, label %9

8:                                                ; preds = %1
  store i32 0, ptr %2, align 4
  br label %14

9:                                                ; preds = %1
  %10 = getelementptr inbounds nuw %class.vector.3, ptr %4, i32 0, i32 0
  %11 = load ptr, ptr %10, align 8, !tbaa !239
  %12 = getelementptr inbounds i32, ptr %11, i64 -1
  %13 = load i32, ptr %12, align 4, !tbaa !73
  store i32 %13, ptr %2, align 4
  br label %14

14:                                               ; preds = %9, %8
  %15 = load i32, ptr %2, align 4
  ret i32 %15
}

; Function Attrs: mustprogress uwtable
define linkonce_odr hidden noundef nonnull align 8 dereferenceable(8) ptr @_ZN6vectorIjLb0EjE9push_backERKj(ptr noundef nonnull align 8 dereferenceable(8) %0, ptr noundef nonnull align 4 dereferenceable(4) %1) #4 comdat align 2 {
  %3 = alloca ptr, align 8
  %4 = alloca ptr, align 8
  store ptr %0, ptr %3, align 8, !tbaa !237
  store ptr %1, ptr %4, align 8, !tbaa !102
  %5 = load ptr, ptr %3, align 8
  %6 = getelementptr inbounds nuw %class.vector.3, ptr %5, i32 0, i32 0
  %7 = load ptr, ptr %6, align 8, !tbaa !239
  %8 = icmp eq ptr %7, null
  br i1 %8, label %19, label %9

9:                                                ; preds = %2
  %10 = getelementptr inbounds nuw %class.vector.3, ptr %5, i32 0, i32 0
  %11 = load ptr, ptr %10, align 8, !tbaa !239
  %12 = getelementptr inbounds i32, ptr %11, i64 -1
  %13 = load i32, ptr %12, align 4, !tbaa !73
  %14 = getelementptr inbounds nuw %class.vector.3, ptr %5, i32 0, i32 0
  %15 = load ptr, ptr %14, align 8, !tbaa !239
  %16 = getelementptr inbounds i32, ptr %15, i64 -2
  %17 = load i32, ptr %16, align 4, !tbaa !73
  %18 = icmp eq i32 %13, %17
  br i1 %18, label %19, label %20

19:                                               ; preds = %9, %2
  call void @_ZN6vectorIjLb0EjE13expand_vectorEv(ptr noundef nonnull align 8 dereferenceable(8) %5)
  br label %20

20:                                               ; preds = %19, %9
  %21 = getelementptr inbounds nuw %class.vector.3, ptr %5, i32 0, i32 0
  %22 = load ptr, ptr %21, align 8, !tbaa !239
  %23 = getelementptr inbounds nuw %class.vector.3, ptr %5, i32 0, i32 0
  %24 = load ptr, ptr %23, align 8, !tbaa !239
  %25 = getelementptr inbounds i32, ptr %24, i64 -1
  %26 = load i32, ptr %25, align 4, !tbaa !73
  %27 = zext i32 %26 to i64
  %28 = getelementptr inbounds nuw i32, ptr %22, i64 %27
  %29 = load ptr, ptr %4, align 8, !tbaa !102
  %30 = load i32, ptr %29, align 4, !tbaa !73
  store i32 %30, ptr %28, align 4, !tbaa !73
  %31 = getelementptr inbounds nuw %class.vector.3, ptr %5, i32 0, i32 0
  %32 = load ptr, ptr %31, align 8, !tbaa !239
  %33 = getelementptr inbounds i32, ptr %32, i64 -1
  %34 = load i32, ptr %33, align 4, !tbaa !73
  %35 = add i32 %34, 1
  store i32 %35, ptr %33, align 4, !tbaa !73
  ret ptr %5
}

; Function Attrs: mustprogress nounwind uwtable
define linkonce_odr hidden noundef nonnull align 4 dereferenceable(4) ptr @_ZN6vectorIjLb0EjEixEj(ptr noundef nonnull align 8 dereferenceable(8) %0, i32 noundef %1) #5 comdat align 2 {
  %3 = alloca ptr, align 8
  %4 = alloca i32, align 4
  store ptr %0, ptr %3, align 8, !tbaa !237
  store i32 %1, ptr %4, align 4, !tbaa !73
  %5 = load ptr, ptr %3, align 8
  %6 = getelementptr inbounds nuw %class.vector.3, ptr %5, i32 0, i32 0
  %7 = load ptr, ptr %6, align 8, !tbaa !239
  %8 = load i32, ptr %4, align 4, !tbaa !73
  %9 = zext i32 %8 to i64
  %10 = getelementptr inbounds nuw i32, ptr %7, i64 %9
  ret ptr %10
}

; Function Attrs: inlinehint mustprogress uwtable
define linkonce_odr hidden i32 @_ZN3sat10to_literalEj(i32 noundef %0) #8 comdat {
  %2 = alloca %"class.sat::literal", align 4
  %3 = alloca i32, align 4
  store i32 %0, ptr %3, align 4, !tbaa !73
  call void @_ZN3sat7literalC2Ev(ptr noundef nonnull align 4 dereferenceable(4) %2)
  %4 = load i32, ptr %3, align 4, !tbaa !73
  %5 = getelementptr inbounds nuw %"class.sat::literal", ptr %2, i32 0, i32 0
  store i32 %4, ptr %5, align 4, !tbaa !88
  %6 = getelementptr inbounds nuw %"class.sat::literal", ptr %2, i32 0, i32 0
  %7 = load i32, ptr %6, align 4
  ret i32 %7
}

; Function Attrs: mustprogress nounwind uwtable
define linkonce_odr hidden noundef zeroext i1 @_ZNK3sat7watched10is_learnedEv(ptr noundef nonnull align 8 dereferenceable(12) %0) #5 comdat align 2 {
  %2 = alloca ptr, align 8
  store ptr %0, ptr %2, align 8, !tbaa !100
  %3 = load ptr, ptr %2, align 8
  %4 = getelementptr inbounds nuw %"class.sat::watched", ptr %3, i32 0, i32 1
  %5 = load i32, ptr %4, align 8, !tbaa !315
  %6 = lshr i32 %5, 2
  %7 = and i32 %6, 1
  %8 = icmp eq i32 %7, 1
  ret i1 %8
}

; Function Attrs: mustprogress uwtable
define linkonce_odr hidden noundef zeroext i1 @_ZNK3sat7watched16is_binary_clauseEv(ptr noundef nonnull align 8 dereferenceable(12) %0) #4 comdat align 2 {
  %2 = alloca ptr, align 8
  store ptr %0, ptr %2, align 8, !tbaa !100
  %3 = load ptr, ptr %2, align 8
  %4 = call noundef i32 @_ZNK3sat7watched8get_kindEv(ptr noundef nonnull align 8 dereferenceable(12) %3)
  %5 = icmp eq i32 %4, 0
  ret i1 %5
}

; Function Attrs: mustprogress nounwind uwtable
define linkonce_odr hidden noundef i32 @_ZNK6vectorIN3sat7watchedELb1EjE4sizeEv(ptr noundef nonnull align 8 dereferenceable(8) %0) #5 comdat align 2 {
  %2 = alloca i32, align 4
  %3 = alloca ptr, align 8
  store ptr %0, ptr %3, align 8, !tbaa !98
  %4 = load ptr, ptr %3, align 8
  %5 = getelementptr inbounds nuw %class.vector.60, ptr %4, i32 0, i32 0
  %6 = load ptr, ptr %5, align 8, !tbaa !264
  %7 = icmp eq ptr %6, null
  br i1 %7, label %8, label %9

8:                                                ; preds = %1
  store i32 0, ptr %2, align 4
  br label %14

9:                                                ; preds = %1
  %10 = getelementptr inbounds nuw %class.vector.60, ptr %4, i32 0, i32 0
  %11 = load ptr, ptr %10, align 8, !tbaa !264
  %12 = getelementptr inbounds i32, ptr %11, i64 -1
  %13 = load i32, ptr %12, align 4, !tbaa !73
  store i32 %13, ptr %2, align 4
  br label %14

14:                                               ; preds = %9, %8
  %15 = load i32, ptr %2, align 4
  ret i32 %15
}

; Function Attrs: mustprogress uwtable
define linkonce_odr hidden noundef i32 @_ZNK3sat9elim_vars8num_varsEv(ptr noundef nonnull align 8 dereferenceable(808) %0) #4 comdat align 2 {
  %2 = alloca ptr, align 8
  store ptr %0, ptr %2, align 8, !tbaa !3
  %3 = load ptr, ptr %2, align 8
  %4 = getelementptr inbounds nuw %"class.sat::elim_vars", ptr %3, i32 0, i32 4
  %5 = call noundef i32 @_ZNK6vectorIjLb0EjE4sizeEv(ptr noundef nonnull align 8 dereferenceable(8) %4)
  ret i32 %5
}

; Function Attrs: mustprogress uwtable
define hidden void @_ZN3sat9elim_vars8mark_varEj(ptr noundef nonnull align 8 dereferenceable(808) %0, i32 noundef %1) #4 align 2 {
  %3 = alloca ptr, align 8
  %4 = alloca i32, align 4
  store ptr %0, ptr %3, align 8, !tbaa !3
  store i32 %1, ptr %4, align 4, !tbaa !73
  %5 = load ptr, ptr %3, align 8
  %6 = getelementptr inbounds nuw %"class.sat::elim_vars", ptr %5, i32 0, i32 5
  %7 = load i32, ptr %4, align 4, !tbaa !73
  %8 = call noundef nonnull align 4 dereferenceable(4) ptr @_ZN6vectorIjLb0EjEixEj(ptr noundef nonnull align 8 dereferenceable(8) %6, i32 noundef %7)
  %9 = load i32, ptr %8, align 4, !tbaa !73
  %10 = getelementptr inbounds nuw %"class.sat::elim_vars", ptr %5, i32 0, i32 6
  %11 = load i32, ptr %10, align 8, !tbaa !45
  %12 = icmp ne i32 %9, %11
  br i1 %12, label %13, label %24

13:                                               ; preds = %2
  %14 = getelementptr inbounds nuw %"class.sat::elim_vars", ptr %5, i32 0, i32 6
  %15 = load i32, ptr %14, align 8, !tbaa !45
  %16 = getelementptr inbounds nuw %"class.sat::elim_vars", ptr %5, i32 0, i32 5
  %17 = load i32, ptr %4, align 4, !tbaa !73
  %18 = call noundef nonnull align 4 dereferenceable(4) ptr @_ZN6vectorIjLb0EjEixEj(ptr noundef nonnull align 8 dereferenceable(8) %16, i32 noundef %17)
  store i32 %15, ptr %18, align 4, !tbaa !73
  %19 = getelementptr inbounds nuw %"class.sat::elim_vars", ptr %5, i32 0, i32 4
  %20 = call noundef nonnull align 8 dereferenceable(8) ptr @_ZN6vectorIjLb0EjE9push_backERKj(ptr noundef nonnull align 8 dereferenceable(8) %19, ptr noundef nonnull align 4 dereferenceable(4) %4)
  %21 = getelementptr inbounds nuw %"class.sat::elim_vars", ptr %5, i32 0, i32 8
  %22 = load i32, ptr %4, align 4, !tbaa !73
  %23 = call noundef nonnull align 4 dereferenceable(4) ptr @_ZN6vectorIjLb0EjEixEj(ptr noundef nonnull align 8 dereferenceable(8) %21, i32 noundef %22)
  store i32 1, ptr %23, align 4, !tbaa !73
  br label %30

24:                                               ; preds = %2
  %25 = getelementptr inbounds nuw %"class.sat::elim_vars", ptr %5, i32 0, i32 8
  %26 = load i32, ptr %4, align 4, !tbaa !73
  %27 = call noundef nonnull align 4 dereferenceable(4) ptr @_ZN6vectorIjLb0EjEixEj(ptr noundef nonnull align 8 dereferenceable(8) %25, i32 noundef %26)
  %28 = load i32, ptr %27, align 4, !tbaa !73
  %29 = add i32 %28, 1
  store i32 %29, ptr %27, align 4, !tbaa !73
  br label %30

30:                                               ; preds = %24, %13
  ret void
}

; Function Attrs: mustprogress nounwind uwtable
define linkonce_odr hidden noundef i32 @_ZNK3sat7literal3varEv(ptr noundef nonnull align 4 dereferenceable(4) %0) #5 comdat align 2 {
  %2 = alloca ptr, align 8
  store ptr %0, ptr %2, align 8, !tbaa !84
  %3 = load ptr, ptr %2, align 8
  %4 = getelementptr inbounds nuw %"class.sat::literal", ptr %3, i32 0, i32 0
  %5 = load i32, ptr %4, align 4, !tbaa !88
  %6 = lshr i32 %5, 1
  ret i32 %6
}

; Function Attrs: mustprogress uwtable
define linkonce_odr hidden i32 @_ZNK3sat7watched11get_literalEv(ptr noundef nonnull align 8 dereferenceable(12) %0) #4 comdat align 2 {
  %2 = alloca %"class.sat::literal", align 4
  %3 = alloca ptr, align 8
  store ptr %0, ptr %3, align 8, !tbaa !100
  %4 = load ptr, ptr %3, align 8
  %5 = getelementptr inbounds nuw %"class.sat::watched", ptr %4, i32 0, i32 0
  %6 = load i64, ptr %5, align 8, !tbaa !266
  %7 = trunc i64 %6 to i32
  %8 = call i32 @_ZN3sat10to_literalEj(i32 noundef %7)
  %9 = getelementptr inbounds nuw %"class.sat::literal", ptr %2, i32 0, i32 0
  store i32 %8, ptr %9, align 4
  %10 = getelementptr inbounds nuw %"class.sat::literal", ptr %2, i32 0, i32 0
  %11 = load i32, ptr %10, align 4
  ret i32 %11
}

; Function Attrs: mustprogress uwtable
define linkonce_odr hidden noundef zeroext i1 @_ZNK3sat7watched28is_binary_non_learned_clauseEv(ptr noundef nonnull align 8 dereferenceable(12) %0) #4 comdat align 2 {
  %2 = alloca ptr, align 8
  store ptr %0, ptr %2, align 8, !tbaa !100
  %3 = load ptr, ptr %2, align 8
  %4 = call noundef zeroext i1 @_ZNK3sat7watched16is_binary_clauseEv(ptr noundef nonnull align 8 dereferenceable(12) %3)
  br i1 %4, label %5, label %8

5:                                                ; preds = %1
  %6 = call noundef zeroext i1 @_ZNK3sat7watched10is_learnedEv(ptr noundef nonnull align 8 dereferenceable(12) %3)
  %7 = xor i1 %6, true
  br label %8

8:                                                ; preds = %5, %1
  %9 = phi i1 [ false, %1 ], [ %7, %5 ]
  ret i1 %9
}

; Function Attrs: mustprogress uwtable
define linkonce_odr hidden noundef ptr @_ZN6vectorIN3sat7watchedELb1EjE3endEv(ptr noundef nonnull align 8 dereferenceable(8) %0) #4 comdat align 2 {
  %2 = alloca ptr, align 8
  store ptr %0, ptr %2, align 8, !tbaa !98
  %3 = load ptr, ptr %2, align 8
  %4 = getelementptr inbounds nuw %class.vector.60, ptr %3, i32 0, i32 0
  %5 = load ptr, ptr %4, align 8, !tbaa !264
  %6 = call noundef i32 @_ZNK6vectorIN3sat7watchedELb1EjE4sizeEv(ptr noundef nonnull align 8 dereferenceable(8) %3)
  %7 = zext i32 %6 to i64
  %8 = getelementptr inbounds nuw %"class.sat::watched", ptr %5, i64 %7
  ret ptr %8
}

; Function Attrs: mustprogress nounwind uwtable
define linkonce_odr hidden noundef ptr @_ZN6vectorIN3sat7watchedELb1EjE5beginEv(ptr noundef nonnull align 8 dereferenceable(8) %0) #5 comdat align 2 {
  %2 = alloca ptr, align 8
  store ptr %0, ptr %2, align 8, !tbaa !98
  %3 = load ptr, ptr %2, align 8
  %4 = getelementptr inbounds nuw %class.vector.60, ptr %3, i32 0, i32 0
  %5 = load ptr, ptr %4, align 8, !tbaa !264
  ret ptr %5
}

; Function Attrs: mustprogress uwtable
define hidden noundef zeroext i1 @_ZN3sat9elim_vars13mark_literalsENS_7literalE(ptr noundef nonnull align 8 dereferenceable(808) %0, i32 %1) #4 align 2 {
  %3 = alloca %"class.sat::literal", align 4
  %4 = alloca ptr, align 8
  %5 = alloca ptr, align 8
  %6 = alloca %"class.sat::literal", align 4
  %7 = alloca ptr, align 8
  %8 = alloca ptr, align 8
  %9 = alloca ptr, align 8
  %10 = alloca ptr, align 8
  %11 = alloca %"class.sat::literal", align 4
  %12 = getelementptr inbounds nuw %"class.sat::literal", ptr %3, i32 0, i32 0
  store i32 %1, ptr %12, align 4
  store ptr %0, ptr %4, align 8, !tbaa !3
  %13 = load ptr, ptr %4, align 8
  call void @llvm.lifetime.start.p0(i64 8, ptr %5) #3
  %14 = getelementptr inbounds nuw %"class.sat::elim_vars", ptr %13, i32 0, i32 0
  %15 = load ptr, ptr %14, align 8, !tbaa !77
  call void @llvm.memcpy.p0.p0.i64(ptr align 4 %6, ptr align 4 %3, i64 4, i1 false), !tbaa.struct !78
  %16 = getelementptr inbounds nuw %"class.sat::literal", ptr %6, i32 0, i32 0
  %17 = load i32, ptr %16, align 4
  %18 = call noundef nonnull align 8 dereferenceable(8) ptr @_ZN3sat10simplifier9get_wlistENS_7literalE(ptr noundef nonnull align 8 dereferenceable(288) %15, i32 %17)
  store ptr %18, ptr %5, align 8, !tbaa !98
  call void @llvm.lifetime.start.p0(i64 8, ptr %7) #3
  %19 = load ptr, ptr %5, align 8, !tbaa !98
  store ptr %19, ptr %7, align 8, !tbaa !98
  call void @llvm.lifetime.start.p0(i64 8, ptr %8) #3
  %20 = load ptr, ptr %7, align 8, !tbaa !98
  %21 = call noundef ptr @_ZN6vectorIN3sat7watchedELb1EjE5beginEv(ptr noundef nonnull align 8 dereferenceable(8) %20)
  store ptr %21, ptr %8, align 8, !tbaa !100
  call void @llvm.lifetime.start.p0(i64 8, ptr %9) #3
  %22 = load ptr, ptr %7, align 8, !tbaa !98
  %23 = call noundef ptr @_ZN6vectorIN3sat7watchedELb1EjE3endEv(ptr noundef nonnull align 8 dereferenceable(8) %22)
  store ptr %23, ptr %9, align 8, !tbaa !100
  br label %24

24:                                               ; preds = %39, %2
  %25 = load ptr, ptr %8, align 8, !tbaa !100
  %26 = load ptr, ptr %9, align 8, !tbaa !100
  %27 = icmp ne ptr %25, %26
  br i1 %27, label %29, label %28

28:                                               ; preds = %24
  call void @llvm.lifetime.end.p0(i64 8, ptr %9) #3
  call void @llvm.lifetime.end.p0(i64 8, ptr %8) #3
  call void @llvm.lifetime.end.p0(i64 8, ptr %7) #3
  br label %42

29:                                               ; preds = %24
  call void @llvm.lifetime.start.p0(i64 8, ptr %10) #3
  %30 = load ptr, ptr %8, align 8, !tbaa !100
  store ptr %30, ptr %10, align 8, !tbaa !100
  %31 = load ptr, ptr %10, align 8, !tbaa !100
  %32 = call noundef zeroext i1 @_ZNK3sat7watched28is_binary_non_learned_clauseEv(ptr noundef nonnull align 8 dereferenceable(12) %31)
  br i1 %32, label %33, label %38

33:                                               ; preds = %29
  call void @llvm.lifetime.start.p0(i64 4, ptr %11) #3
  %34 = load ptr, ptr %10, align 8, !tbaa !100
  %35 = call i32 @_ZNK3sat7watched11get_literalEv(ptr noundef nonnull align 8 dereferenceable(12) %34)
  %36 = getelementptr inbounds nuw %"class.sat::literal", ptr %11, i32 0, i32 0
  store i32 %35, ptr %36, align 4
  %37 = call noundef i32 @_ZNK3sat7literal3varEv(ptr noundef nonnull align 4 dereferenceable(4) %11)
  call void @_ZN3sat9elim_vars8mark_varEj(ptr noundef nonnull align 8 dereferenceable(808) %13, i32 noundef %37)
  call void @llvm.lifetime.end.p0(i64 4, ptr %11) #3
  br label %38

38:                                               ; preds = %33, %29
  call void @llvm.lifetime.end.p0(i64 8, ptr %10) #3
  br label %39

39:                                               ; preds = %38
  %40 = load ptr, ptr %8, align 8, !tbaa !100
  %41 = getelementptr inbounds nuw %"class.sat::watched", ptr %40, i32 1
  store ptr %41, ptr %8, align 8, !tbaa !100
  br label %24

42:                                               ; preds = %28
  %43 = call noundef i32 @_ZNK3sat9elim_vars8num_varsEv(ptr noundef nonnull align 8 dereferenceable(808) %13)
  %44 = getelementptr inbounds nuw %"class.sat::elim_vars", ptr %13, i32 0, i32 12
  %45 = load i32, ptr %44, align 4, !tbaa !67
  %46 = icmp ule i32 %43, %45
  call void @llvm.lifetime.end.p0(i64 8, ptr %5) #3
  ret i1 %46
}