; Function Attrs: mustprogress uwtable
define hidden noundef zeroext i1 @_ZN3sat9elim_vars13mark_literalsENS_7literalE(ptr noundef nonnull align 8 dereferenceable(808) %0, i32 %1) local_unnamed_addr #3 align 2 {
  %3 = load ptr, ptr %0, align 8, !tbaa !74
  %4 = tail call noundef nonnull align 8 dereferenceable(8) ptr @_ZN3sat10simplifier9get_wlistENS_7literalE(ptr noundef nonnull align 8 dereferenceable(288) %3, i32 %1)
  %5 = load ptr, ptr %4, align 8, !tbaa !115
  %6 = icmp eq ptr %5, null
  br i1 %6, label %._crit_edge, label %_ZN6vectorIN3sat7watchedELb1EjE3endEv.exit

_ZN6vectorIN3sat7watchedELb1EjE3endEv.exit:       ; preds = %2
  %7 = getelementptr inbounds i8, ptr %5, i64 -4
  %8 = load i32, ptr %7, align 4, !tbaa !80
  %9 = zext i32 %8 to i64
  %10 = getelementptr inbounds nuw %"class.sat::watched", ptr %5, i64 %9
  %.not12 = icmp eq i32 %8, 0
  br i1 %.not12, label %._crit_edge, label %.lr.ph

.lr.ph:                                           ; preds = %_ZN6vectorIN3sat7watchedELb1EjE3endEv.exit
  %11 = getelementptr inbounds nuw i8, ptr %0, i64 760
  %12 = getelementptr inbounds nuw i8, ptr %0, i64 768
  %13 = getelementptr inbounds nuw i8, ptr %0, i64 752
  %14 = getelementptr inbounds nuw i8, ptr %0, i64 784
  br label %24

._crit_edge:                                      ; preds = %_ZN3sat9elim_vars8mark_varEj.exit, %2, %_ZN6vectorIN3sat7watchedELb1EjE3endEv.exit
  %15 = getelementptr inbounds nuw i8, ptr %0, i64 752
  %16 = load ptr, ptr %15, align 8, !tbaa !79
  %17 = icmp eq ptr %16, null
  br i1 %17, label %_ZNK3sat9elim_vars8num_varsEv.exit, label %18

18:                                               ; preds = %._crit_edge
  %19 = getelementptr inbounds i8, ptr %16, i64 -4
  %20 = load i32, ptr %19, align 4, !tbaa !80
  br label %_ZNK3sat9elim_vars8num_varsEv.exit

_ZNK3sat9elim_vars8num_varsEv.exit:               ; preds = %._crit_edge, %18
  %.0.i.i11 = phi i32 [ %20, %18 ], [ 0, %._crit_edge ]
  %21 = getelementptr inbounds nuw i8, ptr %0, i64 804
  %22 = load i32, ptr %21, align 4, !tbaa !45
  %23 = icmp ule i32 %.0.i.i11, %22
  ret i1 %23

24:                                               ; preds = %.lr.ph, %_ZN3sat9elim_vars8mark_varEj.exit
  %.013 = phi ptr [ %5, %.lr.ph ], [ %61, %_ZN3sat9elim_vars8mark_varEj.exit ]
  %25 = getelementptr inbounds nuw i8, ptr %.013, i64 8
  %26 = load i32, ptr %25, align 8, !tbaa !118
  %27 = and i32 %26, 7
  %28 = icmp eq i32 %27, 0
  br i1 %28, label %29, label %_ZN3sat9elim_vars8mark_varEj.exit

29:                                               ; preds = %24
  %30 = load i64, ptr %.013, align 8, !tbaa !120
  %31 = trunc i64 %30 to i32
  %32 = lshr i32 %31, 1
  %33 = load ptr, ptr %11, align 8, !tbaa !79
  %34 = zext nneg i32 %32 to i64
  %35 = getelementptr inbounds nuw i32, ptr %33, i64 %34
  %36 = load i32, ptr %35, align 4, !tbaa !80
  %37 = load i32, ptr %12, align 8, !tbaa !81
  %.not.i = icmp eq i32 %36, %37
  br i1 %.not.i, label %56, label %38

38:                                               ; preds = %29
  store i32 %37, ptr %35, align 4, !tbaa !80
  %39 = load ptr, ptr %13, align 8, !tbaa !79
  %40 = icmp eq ptr %39, null
  br i1 %40, label %47, label %41

41:                                               ; preds = %38
  %42 = getelementptr inbounds i8, ptr %39, i64 -4
  %43 = load i32, ptr %42, align 4, !tbaa !80
  %44 = getelementptr inbounds i8, ptr %39, i64 -8
  %45 = load i32, ptr %44, align 4, !tbaa !80
  %46 = icmp eq i32 %43, %45
  br i1 %46, label %47, label %_ZN6vectorIjLb0EjE9push_backERKj.exit.i

47:                                               ; preds = %41, %38
  tail call void @_ZN6vectorIjLb0EjE13expand_vectorEv(ptr noundef nonnull align 8 dereferenceable(8) %13)
  %.pre.i.i = load ptr, ptr %13, align 8, !tbaa !79
  %.phi.trans.insert.i.i = getelementptr inbounds i8, ptr %.pre.i.i, i64 -4
  %.pre2.i.i = load i32, ptr %.phi.trans.insert.i.i, align 4, !tbaa !80
  br label %_ZN6vectorIjLb0EjE9push_backERKj.exit.i

_ZN6vectorIjLb0EjE9push_backERKj.exit.i:          ; preds = %47, %41
  %48 = phi i32 [ %.pre2.i.i, %47 ], [ %43, %41 ]
  %49 = phi ptr [ %.pre.i.i, %47 ], [ %39, %41 ]
  %50 = getelementptr inbounds i8, ptr %49, i64 -4
  %51 = zext i32 %48 to i64
  %52 = getelementptr inbounds nuw i32, ptr %49, i64 %51
  store i32 %32, ptr %52, align 4, !tbaa !80
  %53 = add i32 %48, 1
  store i32 %53, ptr %50, align 4, !tbaa !80
  %54 = load ptr, ptr %14, align 8, !tbaa !79
  %55 = getelementptr inbounds nuw i32, ptr %54, i64 %34
  store i32 1, ptr %55, align 4, !tbaa !80
  br label %_ZN3sat9elim_vars8mark_varEj.exit

56:                                               ; preds = %29
  %57 = load ptr, ptr %14, align 8, !tbaa !79
  %58 = getelementptr inbounds nuw i32, ptr %57, i64 %34
  %59 = load i32, ptr %58, align 4, !tbaa !80
  %60 = add i32 %59, 1
  store i32 %60, ptr %58, align 4, !tbaa !80
  br label %_ZN3sat9elim_vars8mark_varEj.exit

_ZN3sat9elim_vars8mark_varEj.exit:                ; preds = %56, %_ZN6vectorIjLb0EjE9push_backERKj.exit.i, %24
  %61 = getelementptr inbounds nuw i8, ptr %.013, i64 16
  %.not = icmp eq ptr %61, %10
  br i1 %.not, label %._crit_edge, label %24
}